target datalayout = "e-m:e-p270:32:32-p271:32:32-p272:64:64-i64:64-i128:128-f80:128-n8:16:32:64-S128"
target triple = "x86_64-pc-linux-gnu"

%struct.VHeader_ = type { i32, i32, [0 x i8] }
%struct.DesignatorElement_ = type { i8, %union.anon.83, i32, i32 }
%union.anon.83 = type { %struct.anon.84 }
%struct.anon.84 = type { ptr, ptr }

@.str = private unnamed_addr constant [36 x i8] c"FATAL ERROR %s -> in %s @ in %s:%d \00", align 1
@.str.1 = private unnamed_addr constant [22 x i8] c"Should be unreachable\00", align 1
@.str.2 = private unnamed_addr constant [108 x i8] c"generated/home/dtcxzyw/WorkSpace/Projects/compilers/llvm-opt-benchmark/bench/c3c/c3c/src/compiler/copying.c\00", align 1
@__func__.macro_copy_designator_list = private unnamed_addr constant [27 x i8] c"macro_copy_designator_list\00", align 1

; Function Attrs: nounwind uwtable
define internal ptr @vec_new_(i64 noundef %0, i64 noundef %1) #0 {
  %3 = alloca i64, align 8
  %4 = alloca i64, align 8
  %5 = alloca ptr, align 8
  store i64 %0, ptr %3, align 8
  store i64 %1, ptr %4, align 8
  %6 = load i64, ptr %3, align 8
  %7 = load i64, ptr %4, align 8
  %8 = mul i64 %6, %7
  %9 = add i64 %8, 8
  %10 = call ptr @calloc_arena(i64 noundef %9)
  store ptr %10, ptr %5, align 8
  %11 = load i64, ptr %4, align 8
  %12 = trunc i64 %11 to i32
  %13 = load ptr, ptr %5, align 8
  %14 = getelementptr inbounds %struct.VHeader_, ptr %13, i32 0, i32 1
  store i32 %12, ptr %14, align 4
  %15 = load ptr, ptr %5, align 8
  ret ptr %15
}

; Function Attrs: nounwind uwtable
define internal ptr @expand_(ptr noundef %0, i64 noundef %1) #0 {
  %3 = alloca ptr, align 8
  %4 = alloca i64, align 8
  %5 = alloca ptr, align 8
  %6 = alloca ptr, align 8
  %7 = alloca i64, align 8
  store ptr %0, ptr %3, align 8
  store i64 %1, ptr %4, align 8
  %8 = load ptr, ptr %3, align 8
  %9 = icmp ne ptr %8, null
  br i1 %9, label %13, label %10

10:                                               ; preds = %2
  %11 = load i64, ptr %4, align 8
  %12 = call ptr @vec_new_(i64 noundef %11, i64 noundef 8)
  store ptr %12, ptr %5, align 8
  br label %16

13:                                               ; preds = %2
  %14 = load ptr, ptr %3, align 8
  %15 = getelementptr inbounds %struct.VHeader_, ptr %14, i64 -1
  store ptr %15, ptr %5, align 8
  br label %16

16:                                               ; preds = %13, %10
  %17 = load ptr, ptr %5, align 8
  %18 = getelementptr inbounds %struct.VHeader_, ptr %17, i32 0, i32 0
  %19 = load i32, ptr %18, align 4
  %20 = load ptr, ptr %5, align 8
  %21 = getelementptr inbounds %struct.VHeader_, ptr %20, i32 0, i32 1
  %22 = load i32, ptr %21, align 4
  %23 = icmp eq i32 %19, %22
  br i1 %23, label %24, label %49

24:                                               ; preds = %16
  %25 = load i64, ptr %4, align 8
  %26 = load ptr, ptr %5, align 8
  %27 = getelementptr inbounds %struct.VHeader_, ptr %26, i32 0, i32 1
  %28 = load i32, ptr %27, align 4
  %29 = shl i32 %28, 1
  %30 = zext i32 %29 to i64
  %31 = call ptr @vec_new_(i64 noundef %25, i64 noundef %30)
  store ptr %31, ptr %6, align 8
  %32 = load i64, ptr %4, align 8
  %33 = load ptr, ptr %5, align 8
  %34 = getelementptr inbounds %struct.VHeader_, ptr %33, i32 0, i32 1
  %35 = load i32, ptr %34, align 4
  %36 = zext i32 %35 to i64
  %37 = mul i64 %32, %36
  %38 = add i64 %37, 8
  store i64 %38, ptr %7, align 8
  %39 = load ptr, ptr %6, align 8
  %40 = load ptr, ptr %5, align 8
  %41 = load i64, ptr %7, align 8
  call void @llvm.memcpy.p0.p0.i64(ptr align 4 %39, ptr align 4 %40, i64 %41, i1 false)
  %42 = load ptr, ptr %6, align 8
  store ptr %42, ptr %5, align 8
  %43 = load ptr, ptr %5, align 8
  %44 = getelementptr inbounds %struct.VHeader_, ptr %43, i32 0, i32 1
  %45 = load i32, ptr %44, align 4
  %46 = shl i32 %45, 1
  %47 = load ptr, ptr %6, align 8
  %48 = getelementptr inbounds %struct.VHeader_, ptr %47, i32 0, i32 1
  store i32 %46, ptr %48, align 4
  br label %49

49:                                               ; preds = %24, %16
  %50 = load ptr, ptr %5, align 8
  %51 = getelementptr inbounds %struct.VHeader_, ptr %50, i32 0, i32 0
  %52 = load i32, ptr %51, align 4
  %53 = add i32 %52, 1
  store i32 %53, ptr %51, align 4
  %54 = load ptr, ptr %5, align 8
  %55 = getelementptr inbounds %struct.VHeader_, ptr %54, i64 1
  ret ptr %55
}

; Function Attrs: nounwind uwtable
define internal ptr @macro_copy_designator_list(ptr noundef %0, ptr noundef %1) #0 {
  %3 = alloca i32, align 4
  %4 = alloca ptr, align 8
  %5 = alloca ptr, align 8
  %6 = alloca i32, align 4
  %7 = alloca ptr, align 8
  %8 = alloca ptr, align 8
  %9 = alloca ptr, align 8
  %10 = alloca ptr, align 8
  %11 = alloca ptr, align 8
  %12 = alloca i32, align 4
  %13 = alloca i32, align 4
  %14 = alloca ptr, align 8
  %15 = alloca ptr, align 8
  %16 = alloca ptr, align 8
  store ptr %0, ptr %9, align 8
  store ptr %1, ptr %10, align 8
  store ptr null, ptr %11, align 8
  store i32 0, ptr %12, align 4
  %17 = load ptr, ptr %10, align 8
  store ptr %17, ptr %4, align 8
  %18 = load ptr, ptr %4, align 8
  %19 = icmp ne ptr %18, null
  br i1 %19, label %21, label %20

20:                                               ; preds = %2
  store i32 0, ptr %3, align 4
  br label %26

21:                                               ; preds = %2
  %22 = load ptr, ptr %4, align 8
  store ptr %22, ptr %5, align 8
  %23 = load ptr, ptr %5, align 8
  %24 = getelementptr inbounds %struct.VHeader_, ptr %23, i64 -1
  %25 = load i32, ptr %24, align 4
  store i32 %25, ptr %3, align 4
  br label %26

26:                                               ; preds = %21, %20
  %27 = load i32, ptr %3, align 4
  store i32 %27, ptr %13, align 4
  br label %28

28:                                               ; preds = %98, %26
  %29 = load i32, ptr %12, align 4
  %30 = load i32, ptr %13, align 4
  %31 = icmp ult i32 %29, %30
  br i1 %31, label %32, label %101

32:                                               ; preds = %28
  %33 = call ptr @calloc_arena(i64 noundef 32)
  store ptr %33, ptr %14, align 8
  %34 = load ptr, ptr %10, align 8
  %35 = load i32, ptr %12, align 4
  %36 = zext i32 %35 to i64
  %37 = getelementptr inbounds ptr, ptr %34, i64 %36
  %38 = load ptr, ptr %37, align 8
  store ptr %38, ptr %15, align 8
  %39 = load ptr, ptr %14, align 8
  %40 = load ptr, ptr %15, align 8
  call void @llvm.memcpy.p0.p0.i64(ptr align 8 %39, ptr align 8 %40, i64 32, i1 false)
  %41 = load ptr, ptr %15, align 8
  %42 = load i8, ptr %41, align 8
  %43 = and i8 %42, 15
  %44 = zext i8 %43 to i32
  switch i32 %44, label %73 [
    i32 0, label %45
    i32 2, label %53
    i32 1, label %63
  ]

45:                                               ; preds = %32
  %46 = load ptr, ptr %9, align 8
  %47 = load ptr, ptr %14, align 8
  %48 = getelementptr inbounds %struct.DesignatorElement_, ptr %47, i32 0, i32 1
  %49 = load ptr, ptr %48, align 8
  %50 = call ptr @copy_expr(ptr noundef %46, ptr noundef %49)
  %51 = load ptr, ptr %14, align 8
  %52 = getelementptr inbounds %struct.DesignatorElement_, ptr %51, i32 0, i32 1
  store ptr %50, ptr %52, align 8
  br label %76

53:                                               ; preds = %32
  %54 = load ptr, ptr %9, align 8
  %55 = load ptr, ptr %14, align 8
  %56 = getelementptr inbounds %struct.DesignatorElement_, ptr %55, i32 0, i32 1
  %57 = getelementptr inbounds %struct.anon.84, ptr %56, i32 0, i32 1
  %58 = load ptr, ptr %57, align 8
  %59 = call ptr @copy_expr(ptr noundef %54, ptr noundef %58)
  %60 = load ptr, ptr %14, align 8
  %61 = getelementptr inbounds %struct.DesignatorElement_, ptr %60, i32 0, i32 1
  %62 = getelementptr inbounds %struct.anon.84, ptr %61, i32 0, i32 1
  store ptr %59, ptr %62, align 8
  br label %63

63:                                               ; preds = %53, %32
  %64 = load ptr, ptr %9, align 8
  %65 = load ptr, ptr %14, align 8
  %66 = getelementptr inbounds %struct.DesignatorElement_, ptr %65, i32 0, i32 1
  %67 = getelementptr inbounds %struct.anon.84, ptr %66, i32 0, i32 0
  %68 = load ptr, ptr %67, align 8
  %69 = call ptr @copy_expr(ptr noundef %64, ptr noundef %68)
  %70 = load ptr, ptr %14, align 8
  %71 = getelementptr inbounds %struct.DesignatorElement_, ptr %70, i32 0, i32 1
  %72 = getelementptr inbounds %struct.anon.84, ptr %71, i32 0, i32 0
  store ptr %69, ptr %72, align 8
  br label %76

73:                                               ; preds = %32
  br label %74

74:                                               ; preds = %73
  call void (ptr, ...) @error_exit(ptr noundef @.str, ptr noundef @.str.1, ptr noundef @__func__.macro_copy_designator_list, ptr noundef @.str.2, i32 noundef 152) #4
  unreachable

75:                                               ; No predecessors!
  br label %76

76:                                               ; preds = %75, %63, %45
  br label %77

77:                                               ; preds = %76
  %78 = load ptr, ptr %11, align 8
  %79 = call ptr @expand_(ptr noundef %78, i64 noundef 8)
  store ptr %79, ptr %16, align 8
  %80 = load ptr, ptr %16, align 8
  store ptr %80, ptr %11, align 8
  %81 = load ptr, ptr %14, align 8
  %82 = load ptr, ptr %11, align 8
  %83 = load ptr, ptr %11, align 8
  store ptr %83, ptr %7, align 8
  %84 = load ptr, ptr %7, align 8
  %85 = icmp ne ptr %84, null
  br i1 %85, label %87, label %86

86:                                               ; preds = %77
  store i32 0, ptr %6, align 4
  br label %92

87:                                               ; preds = %77
  %88 = load ptr, ptr %7, align 8
  store ptr %88, ptr %8, align 8
  %89 = load ptr, ptr %8, align 8
  %90 = getelementptr inbounds %struct.VHeader_, ptr %89, i64 -1
  %91 = load i32, ptr %90, align 4
  store i32 %91, ptr %6, align 4
  br label %92

92:                                               ; preds = %87, %86
  %93 = load i32, ptr %6, align 4
  %94 = sub i32 %93, 1
  %95 = zext i32 %94 to i64
  %96 = getelementptr inbounds ptr, ptr %82, i64 %95
  store ptr %81, ptr %96, align 8
  br label %97

97:                                               ; preds = %92
  br label %98

98:                                               ; preds = %97
  %99 = load i32, ptr %12, align 4
  %100 = add i32 %99, 1
  store i32 %100, ptr %12, align 4
  br label %28, !llvm.loop !12

101:                                              ; preds = %28
  %102 = load ptr, ptr %11, align 8
  ret ptr %102
}