; Function Attrs: nounwind uwtable
define internal fastcc ptr @macro_copy_designator_list(ptr noundef %0, ptr noundef readonly %1) unnamed_addr #0 {
  %.not = icmp eq ptr %1, null
  br i1 %.not, label %._crit_edge, label %3

3:                                                ; preds = %2
  %4 = getelementptr inbounds i8, ptr %1, i64 -8
  %5 = load i32, ptr %4, align 4
  %.not40 = icmp eq i32 %5, 0
  br i1 %.not40, label %._crit_edge, label %.lr.ph.preheader

.lr.ph.preheader:                                 ; preds = %3
  %wide.trip.count = zext i32 %5 to i64
  br label %.lr.ph

.lr.ph:                                           ; preds = %.lr.ph.preheader, %43
  %indvars.iv = phi i64 [ 0, %.lr.ph.preheader ], [ %indvars.iv.next, %43 ]
  %.03239 = phi ptr [ null, %.lr.ph.preheader ], [ %46, %43 ]
  %6 = tail call ptr @calloc_arena(i64 noundef 32) #5
  %7 = getelementptr inbounds ptr, ptr %1, i64 %indvars.iv
  %8 = load ptr, ptr %7, align 8
  tail call void @llvm.memcpy.p0.p0.i64(ptr noundef nonnull align 8 dereferenceable(32) %6, ptr noundef nonnull align 8 dereferenceable(32) %8, i64 32, i1 false)
  %9 = load i8, ptr %8, align 8
  %10 = and i8 %9, 15
  switch i8 %10, label %15 [
    i8 0, label %16
    i8 2, label %11
    i8 1, label %16
  ]

11:                                               ; preds = %.lr.ph
  %12 = getelementptr inbounds i8, ptr %6, i64 16
  %13 = load ptr, ptr %12, align 8
  %14 = tail call fastcc ptr @copy_expr(ptr noundef %0, ptr noundef %13)
  store ptr %14, ptr %12, align 8
  br label %16

15:                                               ; preds = %.lr.ph
  tail call void (ptr, ...) @error_exit(ptr noundef nonnull @.str, ptr noundef nonnull @.str.1, ptr noundef nonnull @__func__.macro_copy_designator_list, ptr noundef nonnull @.str.2, i32 noundef 152) #6
  unreachable

16:                                               ; preds = %.lr.ph, %11, %.lr.ph
  %17 = getelementptr inbounds i8, ptr %6, i64 8
  %18 = load ptr, ptr %17, align 8
  %19 = tail call fastcc ptr @copy_expr(ptr noundef %0, ptr noundef %18)
  store ptr %19, ptr %17, align 8
  %.not.i = icmp eq ptr %.03239, null
  br i1 %.not.i, label %20, label %23

20:                                               ; preds = %16
  %21 = tail call ptr @calloc_arena(i64 noundef 72) #5
  %22 = getelementptr inbounds i8, ptr %21, i64 4
  store i32 8, ptr %22, align 4
  br label %25

23:                                               ; preds = %16
  %24 = getelementptr inbounds i8, ptr %.03239, i64 -8
  %.phi.trans.insert.i = getelementptr inbounds i8, ptr %.03239, i64 -4
  %.pre.i = load i32, ptr %.phi.trans.insert.i, align 4
  br label %25

25:                                               ; preds = %23, %20
  %26 = phi i32 [ %.pre.i, %23 ], [ 8, %20 ]
  %.0.i = phi ptr [ %24, %23 ], [ %21, %20 ]
  %27 = load i32, ptr %.0.i, align 4
  %28 = icmp eq i32 %27, %26
  br i1 %28, label %29, label %43

29:                                               ; preds = %25
  %30 = getelementptr inbounds i8, ptr %.0.i, i64 4
  %31 = shl i32 %26, 1
  %32 = zext i32 %31 to i64
  %33 = shl nuw nsw i64 %32, 3
  %34 = or disjoint i64 %33, 8
  %35 = tail call ptr @calloc_arena(i64 noundef %34) #5
  %36 = getelementptr inbounds i8, ptr %35, i64 4
  store i32 %31, ptr %36, align 4
  %37 = load i32, ptr %30, align 4
  %38 = zext i32 %37 to i64
  %39 = shl nuw nsw i64 %38, 3
  %40 = add nuw nsw i64 %39, 8
  tail call void @llvm.memcpy.p0.p0.i64(ptr noundef nonnull align 4 dereferenceable(1) %35, ptr noundef nonnull align 4 dereferenceable(1) %.0.i, i64 %40, i1 false)
  %41 = load i32, ptr %36, align 4
  %42 = shl i32 %41, 1
  store i32 %42, ptr %36, align 4
  %.pre18.i = load i32, ptr %35, align 4
  br label %43

43:                                               ; preds = %25, %29
  %44 = phi i32 [ %.pre18.i, %29 ], [ %27, %25 ]
  %.1.i = phi ptr [ %35, %29 ], [ %.0.i, %25 ]
  %45 = add i32 %44, 1
  store i32 %45, ptr %.1.i, align 4
  %46 = getelementptr inbounds i8, ptr %.1.i, i64 8
  %47 = zext i32 %44 to i64
  %48 = getelementptr inbounds ptr, ptr %46, i64 %47
  store ptr %6, ptr %48, align 8
  %indvars.iv.next = add nuw nsw i64 %indvars.iv, 1
  %exitcond.not = icmp eq i64 %indvars.iv.next, %wide.trip.count
  br i1 %exitcond.not, label %._crit_edge, label %.lr.ph, !llvm.loop !14

._crit_edge:                                      ; preds = %43, %2, %3
  %.032.lcssa = phi ptr [ null, %3 ], [ null, %2 ], [ %46, %43 ]
  ret ptr %.032.lcssa
}